target datalayout = "e-m:e-p270:32:32-p271:32:32-p272:64:64-i64:64-i128:128-f80:128-n8:16:32:64-S128"
target triple = "x86_64-pc-linux-gnu"

%union.pthread_mutexattr_t = type { i32 }

@attr_default = internal global %union.pthread_mutexattr_t zeroinitializer, align 4
@attr_recursive = internal global %union.pthread_mutexattr_t zeroinitializer, align 4

; Function Attrs: nounwind uwtable
define internal ptr @evthread_posix_lock_alloc(i32 noundef %0) #0 {
  %2 = alloca ptr, align 8
  %3 = alloca i32, align 4
  %4 = alloca ptr, align 8
  %5 = alloca ptr, align 8
  %6 = alloca i32, align 4
  store i32 %0, ptr %3, align 4
  call void @llvm.lifetime.start.p0(i64 8, ptr %4) #6
  store ptr @attr_default, ptr %4, align 8
  call void @llvm.lifetime.start.p0(i64 8, ptr %5) #6
  %7 = call ptr @event_mm_malloc_(i64 noundef 40)
  store ptr %7, ptr %5, align 8
  %8 = load ptr, ptr %5, align 8
  %9 = icmp ne ptr %8, null
  br i1 %9, label %11, label %10

10:                                               ; preds = %1
  store ptr null, ptr %2, align 8
  store i32 1, ptr %6, align 4
  br label %25

11:                                               ; preds = %1
  %12 = load i32, ptr %3, align 4
  %13 = and i32 %12, 1
  %14 = icmp ne i32 %13, 0
  br i1 %14, label %15, label %16

15:                                               ; preds = %11
  store ptr @attr_recursive, ptr %4, align 8
  br label %16

16:                                               ; preds = %15, %11
  %17 = load ptr, ptr %5, align 8
  %18 = load ptr, ptr %4, align 8
  %19 = call i32 @pthread_mutex_init(ptr noundef %17, ptr noundef %18) #6
  %20 = icmp ne i32 %19, 0
  br i1 %20, label %21, label %23

21:                                               ; preds = %16
  %22 = load ptr, ptr %5, align 8
  call void @event_mm_free_(ptr noundef %22)
  store ptr null, ptr %2, align 8
  store i32 1, ptr %6, align 4
  br label %25

23:                                               ; preds = %16
  %24 = load ptr, ptr %5, align 8
  store ptr %24, ptr %2, align 8
  store i32 1, ptr %6, align 4
  br label %25

25:                                               ; preds = %23, %21, %10
  call void @llvm.lifetime.end.p0(i64 8, ptr %5) #6
  call void @llvm.lifetime.end.p0(i64 8, ptr %4) #6
  %26 = load ptr, ptr %2, align 8
  ret ptr %26
}