; Function Attrs: nounwind uwtable
define internal ptr @evthread_posix_lock_alloc(i32 noundef %0) #0 {
  %2 = tail call ptr @event_mm_malloc_(i64 noundef 40) #8
  %.not = icmp eq ptr %2, null
  br i1 %.not, label %7, label %3

3:                                                ; preds = %1
  %4 = and i32 %0, 1
  %.not8 = icmp eq i32 %4, 0
  %spec.select = select i1 %.not8, ptr @attr_default, ptr @attr_recursive
  %5 = tail call i32 @pthread_mutex_init(ptr noundef nonnull %2, ptr noundef nonnull %spec.select) #8
  %.not9 = icmp eq i32 %5, 0
  br i1 %.not9, label %7, label %6

6:                                                ; preds = %3
  tail call void @event_mm_free_(ptr noundef nonnull %2) #8
  br label %7

7:                                                ; preds = %3, %1, %6
  %.0 = phi ptr [ null, %6 ], [ null, %1 ], [ %2, %3 ]
  ret ptr %.0
}